; Function Attrs: mustprogress nounwind uwtable
define internal fastcc void @_ZL13yy_push_statei(i32 noundef range(i32 1, 19) %0) unnamed_addr #7 {
  %2 = load i32, ptr @_ZL18yy_start_stack_ptr, align 4, !tbaa !9
  %3 = load i32, ptr @_ZL20yy_start_stack_depth, align 4, !tbaa !9
  %.not = icmp slt i32 %2, %3
  %.pre = load ptr, ptr @_ZL14yy_start_stack, align 8, !tbaa !703
  br i1 %.not, label %14, label %4

4:                                                ; preds = %1
  %5 = add nsw i32 %3, 25
  store i32 %5, ptr @_ZL20yy_start_stack_depth, align 4, !tbaa !9
  %6 = sext i32 %5 to i64
  %7 = shl nsw i64 %6, 2
  %.not4 = icmp eq ptr %.pre, null
  br i1 %.not4, label %8, label %10

8:                                                ; preds = %4
  %9 = tail call noalias noundef ptr @malloc(i64 noundef %7) #41
  br label %12

10:                                               ; preds = %4
  %11 = tail call noalias noundef ptr @realloc(ptr noundef nonnull %.pre, i64 noundef %7) #43
  br label %12

12:                                               ; preds = %10, %8
  %storemerge = phi ptr [ %9, %8 ], [ %11, %10 ]
  store ptr %storemerge, ptr @_ZL14yy_start_stack, align 8, !tbaa !703
  %.not5 = icmp eq ptr %storemerge, null
  br i1 %.not5, label %13, label %14

13:                                               ; preds = %12
  tail call fastcc void @_ZL14yy_fatal_errorPKc(ptr noundef nonnull @.str.236) #42
  unreachable

14:                                               ; preds = %12, %1
  %15 = phi ptr [ %storemerge, %12 ], [ %.pre, %1 ]
  %16 = load i32, ptr @_ZL8yy_start, align 4, !tbaa !9
  %17 = add nsw i32 %16, -1
  %18 = sdiv i32 %17, 2
  %19 = add nsw i32 %2, 1
  store i32 %19, ptr @_ZL18yy_start_stack_ptr, align 4, !tbaa !9
  %20 = sext i32 %2 to i64
  %21 = getelementptr inbounds i32, ptr %15, i64 %20
  store i32 %18, ptr %21, align 4, !tbaa !9
  %22 = shl nuw nsw i32 %0, 1
  %23 = or disjoint i32 %22, 1
  store i32 %23, ptr @_ZL8yy_start, align 4, !tbaa !9
  ret void
}